******************************************************************************
                  MSP430 Linker PC v4.3.1                      
******************************************************************************
>> Linked Sat Jun 28 02:07:09 2014

OUTPUT FILE NAME:   <proj24_DMM_current_voltage_REVC.out>
ENTRY POINT SYMBOL: "_c_int00"  address: 0000e43e


MEMORY CONFIGURATION

         name            origin    length      used     unused   attr    fill
----------------------  --------  ---------  --------  --------  ----  --------
  SFR                   00000000   00000010  00000000  00000010  RWIX
  PERIPHERALS_8BIT      00000010   000000f0  00000000  000000f0  RWIX
  PERIPHERALS_16BIT     00000100   00000100  00000000  00000100  RWIX
  RAM                   00000200   00000200  000000c2  0000013e  RWIX
  INFOD                 00001000   00000040  00000000  00000040  RWIX
  INFOC                 00001040   00000040  00000000  00000040  RWIX
  INFOB                 00001080   00000040  00000000  00000040  RWIX
  INFOA                 000010c0   00000040  00000000  00000040  RWIX
  FLASH                 0000c000   00003fe0  00002554  00001a8c  RWIX
  INT00                 0000ffe0   00000002  00000000  00000002  RWIX
  INT01                 0000ffe2   00000002  00000000  00000002  RWIX
  INT02                 0000ffe4   00000002  00000002  00000000  RWIX
  INT03                 0000ffe6   00000002  00000002  00000000  RWIX
  INT04                 0000ffe8   00000002  00000000  00000002  RWIX
  INT05                 0000ffea   00000002  00000002  00000000  RWIX
  INT06                 0000ffec   00000002  00000002  00000000  RWIX
  INT07                 0000ffee   00000002  00000002  00000000  RWIX
  INT08                 0000fff0   00000002  00000002  00000000  RWIX
  INT09                 0000fff2   00000002  00000002  00000000  RWIX
  INT10                 0000fff4   00000002  00000002  00000000  RWIX
  INT11                 0000fff6   00000002  00000002  00000000  RWIX
  INT12                 0000fff8   00000002  00000002  00000000  RWIX
  INT13                 0000fffa   00000002  00000002  00000000  RWIX
  INT14                 0000fffc   00000002  00000002  00000000  RWIX
  RESET                 0000fffe   00000002  00000002  00000000  RWIX


SECTION ALLOCATION MAP

 output                                  attributes/
section   page    origin      length       input sections
--------  ----  ----------  ----------   ----------------
.init_array 
*          0    0000c000    00000000     UNINITIALIZED

.data      0    00000200    00000052     UNINITIALIZED
                  00000200    00000052     main.obj (.data)

.TI.persistent 
*          0    00000200    00000000     UNINITIALIZED

.bss       0    00000252    00000020     UNINITIALIZED
                  00000252    00000008     (.common:NUMBERA1)
                  0000025a    00000008     (.common:NUMBERA2)
                  00000262    00000008     (.common:NUMBERV1)
                  0000026a    00000008     (.common:NUMBERV2)

.TI.noinit 
*          0    00000252    00000000     UNINITIALIZED

.stack     0    000003b0    00000050     UNINITIALIZED
                  000003b0    00000002     rts430_eabi.lib : boot.obj (.stack)
                  000003b2    0000004e     --HOLE--

.text      0    0000c000    0000251c     
                  0000c000    00000466     rts430_eabi.lib : frcdivd.obj (.text:__TI_frcdivd)
                  0000c466    0000034c     main.obj (.text:Read_ADC)
                  0000c7b2    000002f8     rts430_eabi.lib : frcmpyd.obj (.text:__TI_frcmpyd)
                  0000caaa    000002e8                     : addd.obj (.text:__mspabi_addd)
                  0000cd92    00000278                     : frcaddd.obj (.text:__TI_frcaddd)
                  0000d00a    0000026e                     : mpyd.obj (.text:__mspabi_mpyd)
                  0000d278    00000238                     : divd.obj (.text:__mspabi_divd)
                  0000d4b0    000001dc     main.obj (.text:Write_Amperage1)
                  0000d68c    000001dc     main.obj (.text:Write_Amperage2)
                  0000d868    000001da     main.obj (.text:Write_Voltage1)
                  0000da42    000001da     main.obj (.text:Write_Voltage2)
                  0000dc1c    000000ea     main.obj (.text:spiA_transfer24)
                  0000dd06    000000dc     rts430_eabi.lib : cmpd.obj (.text:__mspabi_cmpd)
                  0000dde2    000000c2                     : renormd.obj (.text:__TI_renormd)
                  0000dea4    000000a2                     : fltlid.obj (.text:__mspabi_fltlid)
                  0000df46    00000098     main.obj (.text:main)
                  0000dfde    0000007a     main.obj (.text:Init_MAX7219)
                  0000e058    00000072     rts430_eabi.lib : fixdli.obj (.text:__mspabi_fixdli)
                  0000e0ca    0000005e                     : copy_decompress_rle.obj (.text:__TI_decompress_rle_core)
                  0000e128    0000005e                     : autoinit.obj (.text:_auto_init)
                  0000e186    0000005c     main.obj (.text:SPI_Write2)
                  0000e1e2    0000005c     rts430_eabi.lib : lsr32.obj (.text:l_lsr_const)
                  0000e23e    0000004c                     : lsr16.obj (.text)
                  0000e28a    0000003e                     : asr32.obj (.text:l_asr_const)
                  0000e2c8    0000003e                     : lsl32.obj (.text:l_lsl_const)
                  0000e306    00000036     main.obj (.text:SPI_Init)
                  0000e33c    00000030     main.obj (.text:spiA_init)
                  0000e36c    0000002c     rts430_eabi.lib : asr16.obj (.text)
                  0000e398    0000002c                     : div16s.obj (.text)
                  0000e3c4    0000002c                     : lsl16.obj (.text)
                  0000e3f0    00000028                     : fixdi.obj (.text:__mspabi_fixdi)
                  0000e418    00000026                     : mult32.obj (.text)
                  0000e43e    0000001a                     : boot.obj (.text:_c_int00_noexit)
                  0000e458    00000016                     : div16u.obj (.text)
                  0000e46e    00000014                     : copy_zero_init.obj (.text:decompress:ZI:__TI_zero_init)
                  0000e482    00000014                     : mult16.obj (.text)
                  0000e496    00000012                     : copy_decompress_none.obj (.text:decompress:none:__TI_decompress_none)
                  0000e4a8    00000012                     : lsr32.obj (.text:l_lsr)
                  0000e4ba    00000012                     : memcpy.obj (.text:memcpy)
                  0000e4cc    00000010                     : asr32.obj (.text:l_asr)
                  0000e4dc    00000010                     : lsl32.obj (.text:l_lsl)
                  0000e4ec    00000010                     : epilog.obj (.text)
                  0000e4fc    0000000c                     : fltid.obj (.text:__mspabi_fltid)
                  0000e508    00000006                     : isr_trap.obj (.text:__TI_ISR_TRAP)
                  0000e50e    00000006                     : copy_decompress_rle.obj (.text:decompress:rle24:__TI_decompress_rle24)
                  0000e514    00000004                     : pre_init.obj (.text:_system_pre_init)
                  0000e518    00000004                     : exit.obj (.text:abort)

.cinit     0    0000e51c    00000038     
                  0000e51c    00000026     (.cinit..data.load) [load image, compression = rle]
                  0000e542    00000006     (__TI_handler_table)
                  0000e548    00000004     (.cinit..bss.load) [load image, compression = zero_init]
                  0000e54c    00000008     (__TI_cinit_table)

PORT1      0    0000ffe4    00000002     
                  0000ffe4    00000002     rts430_eabi.lib : int02.obj (.int02)

PORT2      0    0000ffe6    00000002     
                  0000ffe6    00000002     rts430_eabi.lib : int03.obj (.int03)

ADC10      0    0000ffea    00000002     
                  0000ffea    00000002     rts430_eabi.lib : int05.obj (.int05)

USCIAB0TX 
*          0    0000ffec    00000002     
                  0000ffec    00000002     rts430_eabi.lib : int06.obj (.int06)

USCIAB0RX 
*          0    0000ffee    00000002     
                  0000ffee    00000002     rts430_eabi.lib : int07.obj (.int07)

TIMER0_A1 
*          0    0000fff0    00000002     
                  0000fff0    00000002     rts430_eabi.lib : int08.obj (.int08)

TIMER0_A0 
*          0    0000fff2    00000002     
                  0000fff2    00000002     rts430_eabi.lib : int09.obj (.int09)

WDT        0    0000fff4    00000002     
                  0000fff4    00000002     rts430_eabi.lib : int10.obj (.int10)

COMPARATORA 
*          0    0000fff6    00000002     
                  0000fff6    00000002     rts430_eabi.lib : int11.obj (.int11)

TIMER1_A1 
*          0    0000fff8    00000002     
                  0000fff8    00000002     rts430_eabi.lib : int12.obj (.int12)

TIMER1_A0 
*          0    0000fffa    00000002     
                  0000fffa    00000002     rts430_eabi.lib : int13.obj (.int13)

NMI        0    0000fffc    00000002     
                  0000fffc    00000002     rts430_eabi.lib : int14.obj (.int14)

.reset     0    0000fffe    00000002     
                  0000fffe    00000002     rts430_eabi.lib : boot.obj (.reset)


LINKER GENERATED COPY TABLES

__TI_cinit_table @ 0000e54c records: 2, size/record: 4, table size: 8
	.data: load addr=0000e51c, load size=00000026 bytes, run addr=00000200, run size=00000052 bytes, compression=rle
	.bss: load addr=0000e548, load size=00000004 bytes, run addr=00000252, run size=00000020 bytes, compression=zero_init


LINKER GENERATED HANDLER TABLE

__TI_handler_table @ 0000e542 records: 3, size/record: 2, table size: 6
	index: 0, handler: __TI_zero_init
	index: 1, handler: __TI_decompress_rle24
	index: 2, handler: __TI_decompress_none


GLOBAL SYMBOLS: SORTED ALPHABETICALLY BY Name 

address    name
--------   ----
0000004a   ADC10AE0
000001b0   ADC10CTL0
000001b2   ADC10CTL1
00000048   ADC10DTC0
00000049   ADC10DTC1
000001b4   ADC10MEM
000001bc   ADC10SA
00000222   Amps1
00000242   Amps1pre
0000022a   Amps2
0000024a   Amps2pre
00000057   BCSCTL1
00000058   BCSCTL2
00000053   BCSCTL3
0000e518   C$$EXIT
00000059   CACTL1
0000005a   CACTL2
000010fb   CALBC1_12MHZ
000010f9   CALBC1_16MHZ
000010ff   CALBC1_1MHZ
000010fd   CALBC1_8MHZ
000010fa   CALDCO_12MHZ
000010f8   CALDCO_16MHZ
000010fe   CALDCO_1MHZ
000010fc   CALDCO_8MHZ
0000005b   CAPD
00000206   CS
00000056   DCOCTL
00000128   FCTL1
0000012a   FCTL2
0000012c   FCTL3
00000000   IE1
00000001   IE2
00000002   IFG1
00000003   IFG2
0000dfde   Init_MAX7219
00000252   NUMBERA1
0000025a   NUMBERA2
00000262   NUMBERV1
0000026a   NUMBERV2
00000022   P1DIR
00000025   P1IE
00000024   P1IES
00000023   P1IFG
00000020   P1IN
00000021   P1OUT
00000027   P1REN
00000026   P1SEL
00000041   P1SEL2
0000002a   P2DIR
0000002d   P2IE
0000002c   P2IES
0000002b   P2IFG
00000028   P2IN
00000029   P2OUT
0000002f   P2REN
0000002e   P2SEL
00000042   P2SEL2
0000001a   P3DIR
00000018   P3IN
00000019   P3OUT
00000010   P3REN
0000001b   P3SEL
00000043   P3SEL2
0000c466   Read_ADC
00000210   SB
0000e306   SPI_Init
0000e186   SPI_Write2
00000172   TA0CCR0
00000174   TA0CCR1
00000176   TA0CCR2
00000162   TA0CCTL0
00000164   TA0CCTL1
00000166   TA0CCTL2
00000160   TA0CTL
0000012e   TA0IV
00000170   TA0R
00000192   TA1CCR0
00000194   TA1CCR1
00000196   TA1CCR2
00000182   TA1CCTL0
00000184   TA1CCTL1
00000186   TA1CCTL2
00000180   TA1CTL
0000011e   TA1IV
00000190   TA1R
000010db   TLV_ADC10_1_LEN
000010da   TLV_ADC10_1_TAG
000010c0   TLV_CHECKSUM
000010f7   TLV_DCO_30_LEN
000010f6   TLV_DCO_30_TAG
0000005d   UCA0ABCTL
00000062   UCA0BR0
00000063   UCA0BR1
00000060   UCA0CTL0
00000061   UCA0CTL1
0000005f   UCA0IRRCTL
0000005e   UCA0IRTCTL
00000064   UCA0MCTL
00000066   UCA0RXBUF
00000065   UCA0STAT
00000067   UCA0TXBUF
0000006a   UCB0BR0
0000006b   UCB0BR1
00000068   UCB0CTL0
00000069   UCB0CTL1
0000006c   UCB0I2CIE
00000118   UCB0I2COA
0000011a   UCB0I2CSA
0000006e   UCB0RXBUF
0000006d   UCB0STAT
0000006f   UCB0TXBUF
00000212   Volts1
00000232   Volts1pre
0000021a   Volts2
0000023a   Volts2pre
00000120   WDTCTL
0000d4b0   Write_Amperage1
0000d68c   Write_Amperage2
0000d868   Write_Voltage1
0000da42   Write_Voltage2
00000400   __STACK_END
00000050   __STACK_SIZE
0000e54c   __TI_CINIT_Base
0000e554   __TI_CINIT_Limit
0000e542   __TI_Handler_Table_Base
0000e548   __TI_Handler_Table_Limit
UNDEFED    __TI_INITARRAY_Base
UNDEFED    __TI_INITARRAY_Limit
0000e508   __TI_ISR_TRAP
00000001   __TI_args_main
0000e496   __TI_decompress_none
0000e50e   __TI_decompress_rle24
00000001   __TI_exit
0000cd92   __TI_frcaddd
0000c000   __TI_frcdivd
0000c7b2   __TI_frcmpyd
0000ffe4   __TI_int02
0000ffe6   __TI_int03
0000ffea   __TI_int05
0000ffec   __TI_int06
0000ffee   __TI_int07
0000fff0   __TI_int08
0000fff2   __TI_int09
0000fff4   __TI_int10
0000fff6   __TI_int11
0000fff8   __TI_int12
0000fffa   __TI_int13
0000fffc   __TI_int14
0000dde2   __TI_renormd
0000e46e   __TI_zero_init
ffffffff   __binit__
ffffffff   __c_args__
0000caaa   __mspabi_addd
0000dd06   __mspabi_cmpd
0000d278   __mspabi_divd
0000e398   __mspabi_divi
0000e458   __mspabi_divu
0000e3f0   __mspabi_fixdi
0000e058   __mspabi_fixdli
0000e4fc   __mspabi_fltid
0000dea4   __mspabi_fltlid
0000e4f8   __mspabi_func_epilog_1
0000e4f6   __mspabi_func_epilog_2
0000e4f4   __mspabi_func_epilog_3
0000e4f2   __mspabi_func_epilog_4
0000e4f0   __mspabi_func_epilog_5
0000e4ee   __mspabi_func_epilog_6
0000e4ec   __mspabi_func_epilog_7
0000d00a   __mspabi_mpyd
0000e482   __mspabi_mpyi
0000e418   __mspabi_mpyl
0000e398   __mspabi_remi
0000e458   __mspabi_remu
0000e3c4   __mspabi_slli
0000e3ec   __mspabi_slli_1
0000e3da   __mspabi_slli_10
0000e3d8   __mspabi_slli_11
0000e3d6   __mspabi_slli_12
0000e3d4   __mspabi_slli_13
0000e3d2   __mspabi_slli_14
0000e3d0   __mspabi_slli_15
0000e3ea   __mspabi_slli_2
0000e3e8   __mspabi_slli_3
0000e3e6   __mspabi_slli_4
0000e3e4   __mspabi_slli_5
0000e3e2   __mspabi_slli_6
0000e3e0   __mspabi_slli_7
0000e3de   __mspabi_slli_8
0000e3dc   __mspabi_slli_9
0000e4dc   __mspabi_slll
0000e300   __mspabi_slll_1
0000e2dc   __mspabi_slll_10
0000e2d8   __mspabi_slll_11
0000e2d4   __mspabi_slll_12
0000e2d0   __mspabi_slll_13
0000e2cc   __mspabi_slll_14
0000e2c8   __mspabi_slll_15
0000e2fc   __mspabi_slll_2
0000e2f8   __mspabi_slll_3
0000e2f4   __mspabi_slll_4
0000e2f0   __mspabi_slll_5
0000e2ec   __mspabi_slll_6
0000e2e8   __mspabi_slll_7
0000e2e4   __mspabi_slll_8
0000e2e0   __mspabi_slll_9
0000e36c   __mspabi_srai
0000e394   __mspabi_srai_1
0000e382   __mspabi_srai_10
0000e380   __mspabi_srai_11
0000e37e   __mspabi_srai_12
0000e37c   __mspabi_srai_13
0000e37a   __mspabi_srai_14
0000e378   __mspabi_srai_15
0000e392   __mspabi_srai_2
0000e390   __mspabi_srai_3
0000e38e   __mspabi_srai_4
0000e38c   __mspabi_srai_5
0000e38a   __mspabi_srai_6
0000e388   __mspabi_srai_7
0000e386   __mspabi_srai_8
0000e384   __mspabi_srai_9
0000e4cc   __mspabi_sral
0000e2c2   __mspabi_sral_1
0000e29e   __mspabi_sral_10
0000e29a   __mspabi_sral_11
0000e296   __mspabi_sral_12
0000e292   __mspabi_sral_13
0000e28e   __mspabi_sral_14
0000e28a   __mspabi_sral_15
0000e2be   __mspabi_sral_2
0000e2ba   __mspabi_sral_3
0000e2b6   __mspabi_sral_4
0000e2b2   __mspabi_sral_5
0000e2ae   __mspabi_sral_6
0000e2aa   __mspabi_sral_7
0000e2a6   __mspabi_sral_8
0000e2a2   __mspabi_sral_9
0000e23e   __mspabi_srli
0000e284   __mspabi_srli_1
0000e260   __mspabi_srli_10
0000e25c   __mspabi_srli_11
0000e258   __mspabi_srli_12
0000e254   __mspabi_srli_13
0000e250   __mspabi_srli_14
0000e24c   __mspabi_srli_15
0000e280   __mspabi_srli_2
0000e27c   __mspabi_srli_3
0000e278   __mspabi_srli_4
0000e274   __mspabi_srli_5
0000e270   __mspabi_srli_6
0000e26c   __mspabi_srli_7
0000e268   __mspabi_srli_8
0000e264   __mspabi_srli_9
0000e4a8   __mspabi_srll
0000e236   __mspabi_srll_1
0000e200   __mspabi_srll_10
0000e1fa   __mspabi_srll_11
0000e1f4   __mspabi_srll_12
0000e1ee   __mspabi_srll_13
0000e1e8   __mspabi_srll_14
0000e1e2   __mspabi_srll_15
0000e230   __mspabi_srll_2
0000e22a   __mspabi_srll_3
0000e224   __mspabi_srll_4
0000e21e   __mspabi_srll_5
0000e218   __mspabi_srll_6
0000e212   __mspabi_srll_7
0000e20c   __mspabi_srll_8
0000e206   __mspabi_srll_9
0000e128   _auto_init
0000e43e   _c_int00
0000e43e   _c_int00_noexit
0000fffe   _reset_vector
000003b0   _stack
0000e514   _system_pre_init
0000e518   abort
00000200   average
ffffffff   binit
00000202   digitcount
0000df46   main
0000e4ba   memcpy
00000204   number
0000020a   number2fix
0000020c   number3fix
0000020e   number4fix
00000208   numberfix
0000e33c   spiA_init
0000dc1c   spiA_transfer24


GLOBAL SYMBOLS: SORTED BY Symbol Address 

address    name
--------   ----
00000000   IE1
00000001   IE2
00000001   __TI_args_main
00000001   __TI_exit
00000002   IFG1
00000003   IFG2
00000010   P3REN
00000018   P3IN
00000019   P3OUT
0000001a   P3DIR
0000001b   P3SEL
00000020   P1IN
00000021   P1OUT
00000022   P1DIR
00000023   P1IFG
00000024   P1IES
00000025   P1IE
00000026   P1SEL
00000027   P1REN
00000028   P2IN
00000029   P2OUT
0000002a   P2DIR
0000002b   P2IFG
0000002c   P2IES
0000002d   P2IE
0000002e   P2SEL
0000002f   P2REN
00000041   P1SEL2
00000042   P2SEL2
00000043   P3SEL2
00000048   ADC10DTC0
00000049   ADC10DTC1
0000004a   ADC10AE0
00000050   __STACK_SIZE
00000053   BCSCTL3
00000056   DCOCTL
00000057   BCSCTL1
00000058   BCSCTL2
00000059   CACTL1
0000005a   CACTL2
0000005b   CAPD
0000005d   UCA0ABCTL
0000005e   UCA0IRTCTL
0000005f   UCA0IRRCTL
00000060   UCA0CTL0
00000061   UCA0CTL1
00000062   UCA0BR0
00000063   UCA0BR1
00000064   UCA0MCTL
00000065   UCA0STAT
00000066   UCA0RXBUF
00000067   UCA0TXBUF
00000068   UCB0CTL0
00000069   UCB0CTL1
0000006a   UCB0BR0
0000006b   UCB0BR1
0000006c   UCB0I2CIE
0000006d   UCB0STAT
0000006e   UCB0RXBUF
0000006f   UCB0TXBUF
00000118   UCB0I2COA
0000011a   UCB0I2CSA
0000011e   TA1IV
00000120   WDTCTL
00000128   FCTL1
0000012a   FCTL2
0000012c   FCTL3
0000012e   TA0IV
00000160   TA0CTL
00000162   TA0CCTL0
00000164   TA0CCTL1
00000166   TA0CCTL2
00000170   TA0R
00000172   TA0CCR0
00000174   TA0CCR1
00000176   TA0CCR2
00000180   TA1CTL
00000182   TA1CCTL0
00000184   TA1CCTL1
00000186   TA1CCTL2
00000190   TA1R
00000192   TA1CCR0
00000194   TA1CCR1
00000196   TA1CCR2
000001b0   ADC10CTL0
000001b2   ADC10CTL1
000001b4   ADC10MEM
000001bc   ADC10SA
00000200   average
00000202   digitcount
00000204   number
00000206   CS
00000208   numberfix
0000020a   number2fix
0000020c   number3fix
0000020e   number4fix
00000210   SB
00000212   Volts1
0000021a   Volts2
00000222   Amps1
0000022a   Amps2
00000232   Volts1pre
0000023a   Volts2pre
00000242   Amps1pre
0000024a   Amps2pre
00000252   NUMBERA1
0000025a   NUMBERA2
00000262   NUMBERV1
0000026a   NUMBERV2
000003b0   _stack
00000400   __STACK_END
000010c0   TLV_CHECKSUM
000010da   TLV_ADC10_1_TAG
000010db   TLV_ADC10_1_LEN
000010f6   TLV_DCO_30_TAG
000010f7   TLV_DCO_30_LEN
000010f8   CALDCO_16MHZ
000010f9   CALBC1_16MHZ
000010fa   CALDCO_12MHZ
000010fb   CALBC1_12MHZ
000010fc   CALDCO_8MHZ
000010fd   CALBC1_8MHZ
000010fe   CALDCO_1MHZ
000010ff   CALBC1_1MHZ
0000c000   __TI_frcdivd
0000c466   Read_ADC
0000c7b2   __TI_frcmpyd
0000caaa   __mspabi_addd
0000cd92   __TI_frcaddd
0000d00a   __mspabi_mpyd
0000d278   __mspabi_divd
0000d4b0   Write_Amperage1
0000d68c   Write_Amperage2
0000d868   Write_Voltage1
0000da42   Write_Voltage2
0000dc1c   spiA_transfer24
0000dd06   __mspabi_cmpd
0000dde2   __TI_renormd
0000dea4   __mspabi_fltlid
0000df46   main
0000dfde   Init_MAX7219
0000e058   __mspabi_fixdli
0000e128   _auto_init
0000e186   SPI_Write2
0000e1e2   __mspabi_srll_15
0000e1e8   __mspabi_srll_14
0000e1ee   __mspabi_srll_13
0000e1f4   __mspabi_srll_12
0000e1fa   __mspabi_srll_11
0000e200   __mspabi_srll_10
0000e206   __mspabi_srll_9
0000e20c   __mspabi_srll_8
0000e212   __mspabi_srll_7
0000e218   __mspabi_srll_6
0000e21e   __mspabi_srll_5
0000e224   __mspabi_srll_4
0000e22a   __mspabi_srll_3
0000e230   __mspabi_srll_2
0000e236   __mspabi_srll_1
0000e23e   __mspabi_srli
0000e24c   __mspabi_srli_15
0000e250   __mspabi_srli_14
0000e254   __mspabi_srli_13
0000e258   __mspabi_srli_12
0000e25c   __mspabi_srli_11
0000e260   __mspabi_srli_10
0000e264   __mspabi_srli_9
0000e268   __mspabi_srli_8
0000e26c   __mspabi_srli_7
0000e270   __mspabi_srli_6
0000e274   __mspabi_srli_5
0000e278   __mspabi_srli_4
0000e27c   __mspabi_srli_3
0000e280   __mspabi_srli_2
0000e284   __mspabi_srli_1
0000e28a   __mspabi_sral_15
0000e28e   __mspabi_sral_14
0000e292   __mspabi_sral_13
0000e296   __mspabi_sral_12
0000e29a   __mspabi_sral_11
0000e29e   __mspabi_sral_10
0000e2a2   __mspabi_sral_9
0000e2a6   __mspabi_sral_8
0000e2aa   __mspabi_sral_7
0000e2ae   __mspabi_sral_6
0000e2b2   __mspabi_sral_5
0000e2b6   __mspabi_sral_4
0000e2ba   __mspabi_sral_3
0000e2be   __mspabi_sral_2
0000e2c2   __mspabi_sral_1
0000e2c8   __mspabi_slll_15
0000e2cc   __mspabi_slll_14
0000e2d0   __mspabi_slll_13
0000e2d4   __mspabi_slll_12
0000e2d8   __mspabi_slll_11
0000e2dc   __mspabi_slll_10
0000e2e0   __mspabi_slll_9
0000e2e4   __mspabi_slll_8
0000e2e8   __mspabi_slll_7
0000e2ec   __mspabi_slll_6
0000e2f0   __mspabi_slll_5
0000e2f4   __mspabi_slll_4
0000e2f8   __mspabi_slll_3
0000e2fc   __mspabi_slll_2
0000e300   __mspabi_slll_1
0000e306   SPI_Init
0000e33c   spiA_init
0000e36c   __mspabi_srai
0000e378   __mspabi_srai_15
0000e37a   __mspabi_srai_14
0000e37c   __mspabi_srai_13
0000e37e   __mspabi_srai_12
0000e380   __mspabi_srai_11
0000e382   __mspabi_srai_10
0000e384   __mspabi_srai_9
0000e386   __mspabi_srai_8
0000e388   __mspabi_srai_7
0000e38a   __mspabi_srai_6
0000e38c   __mspabi_srai_5
0000e38e   __mspabi_srai_4
0000e390   __mspabi_srai_3
0000e392   __mspabi_srai_2
0000e394   __mspabi_srai_1
0000e398   __mspabi_divi
0000e398   __mspabi_remi
0000e3c4   __mspabi_slli
0000e3d0   __mspabi_slli_15
0000e3d2   __mspabi_slli_14
0000e3d4   __mspabi_slli_13
0000e3d6   __mspabi_slli_12
0000e3d8   __mspabi_slli_11
0000e3da   __mspabi_slli_10
0000e3dc   __mspabi_slli_9
0000e3de   __mspabi_slli_8
0000e3e0   __mspabi_slli_7
0000e3e2   __mspabi_slli_6
0000e3e4   __mspabi_slli_5
0000e3e6   __mspabi_slli_4
0000e3e8   __mspabi_slli_3
0000e3ea   __mspabi_slli_2
0000e3ec   __mspabi_slli_1
0000e3f0   __mspabi_fixdi
0000e418   __mspabi_mpyl
0000e43e   _c_int00
0000e43e   _c_int00_noexit
0000e458   __mspabi_divu
0000e458   __mspabi_remu
0000e46e   __TI_zero_init
0000e482   __mspabi_mpyi
0000e496   __TI_decompress_none
0000e4a8   __mspabi_srll
0000e4ba   memcpy
0000e4cc   __mspabi_sral
0000e4dc   __mspabi_slll
0000e4ec   __mspabi_func_epilog_7
0000e4ee   __mspabi_func_epilog_6
0000e4f0   __mspabi_func_epilog_5
0000e4f2   __mspabi_func_epilog_4
0000e4f4   __mspabi_func_epilog_3
0000e4f6   __mspabi_func_epilog_2
0000e4f8   __mspabi_func_epilog_1
0000e4fc   __mspabi_fltid
0000e508   __TI_ISR_TRAP
0000e50e   __TI_decompress_rle24
0000e514   _system_pre_init
0000e518   C$$EXIT
0000e518   abort
0000e542   __TI_Handler_Table_Base
0000e548   __TI_Handler_Table_Limit
0000e54c   __TI_CINIT_Base
0000e554   __TI_CINIT_Limit
0000ffe4   __TI_int02
0000ffe6   __TI_int03
0000ffea   __TI_int05
0000ffec   __TI_int06
0000ffee   __TI_int07
0000fff0   __TI_int08
0000fff2   __TI_int09
0000fff4   __TI_int10
0000fff6   __TI_int11
0000fff8   __TI_int12
0000fffa   __TI_int13
0000fffc   __TI_int14
0000fffe   _reset_vector
ffffffff   __binit__
ffffffff   __c_args__
ffffffff   binit
UNDEFED    __TI_INITARRAY_Base
UNDEFED    __TI_INITARRAY_Limit

[289 symbols]
